; Function Attrs: mustprogress nofree norecurse nosync nounwind willreturn memory(readwrite, inaccessiblemem: none) uwtable
define dso_local void @markClientAsPubSub(ptr noundef captures(none) %0) local_unnamed_addr #5 {
  %2 = getelementptr inbounds nuw i8, ptr %0, i64 8
  %3 = load i64, ptr %2, align 8, !tbaa !31
  %4 = and i64 %3, 262144
  %.not = icmp eq i64 %4, 0
  br i1 %.not, label %5, label %9

5:                                                ; preds = %1
  %6 = or disjoint i64 %3, 262144
  store i64 %6, ptr %2, align 8, !tbaa !31
  %7 = load i32, ptr getelementptr inbounds nuw (i8, ptr @server, i64 7880), align 8, !tbaa !66
  %8 = add i32 %7, 1
  store i32 %8, ptr getelementptr inbounds nuw (i8, ptr @server, i64 7880), align 8, !tbaa !66
  br label %9

9:                                                ; preds = %5, %1
  ret void
}